target datalayout = "e-m:e-p270:32:32-p271:32:32-p272:64:64-i64:64-i128:128-f80:128-n8:16:32:64-S128"
target triple = "x86_64-pc-linux-gnu"

%struct.Vec_Int_t_ = type { i32, i32, ptr }
%struct.Gia_Man_t_ = type { ptr, ptr, i32, i32, i32, i32, ptr, ptr, i32, i32, i32, ptr, ptr, %struct.Vec_Int_t_, %struct.Vec_Int_t_, i32, i32, i32, %struct.Vec_Int_t_, ptr, ptr, ptr, i32, i32, i32, i32, ptr, ptr, ptr, ptr, ptr, i32, i32, ptr, i32, ptr, ptr, ptr, ptr, ptr, ptr, ptr, ptr, ptr, ptr, ptr, ptr, ptr, ptr, ptr, ptr, ptr, ptr, %struct.Vec_Int_t_, %struct.Vec_Int_t_, ptr, ptr, ptr, ptr, ptr, ptr, ptr, ptr, ptr, ptr, ptr, ptr, ptr, ptr, ptr, ptr, ptr, ptr, ptr, ptr, ptr, i32, float, float, ptr, ptr, i32, ptr, ptr, ptr, ptr, ptr, ptr, ptr, ptr, ptr, ptr, ptr, ptr, ptr, ptr, ptr, i64, i64, ptr, ptr, i32, i32, i32, i32, i32, i32, i32, i32, i32, i32, i32, i32, ptr, ptr, ptr, ptr, ptr, ptr, ptr, ptr, i32, i32, i32, ptr, i32, i32, ptr, ptr, ptr, ptr, ptr, ptr, i32, i32, ptr, %struct.Vec_Int_t_, %struct.Vec_Int_t_, %struct.Vec_Int_t_, ptr, ptr, ptr, i32, i32, i32, i32, ptr, ptr, ptr, ptr, ptr }
%struct.Gia_Obj_t_ = type <{ i64, i32 }>

; Function Attrs: inlinehint nounwind uwtable
define internal i32 @Gia_ObjRefNumId(ptr noundef %0, i32 noundef %1) #3 {
  %3 = alloca ptr, align 8
  %4 = alloca i32, align 4
  store ptr %0, ptr %3, align 8, !tbaa !25
  store i32 %1, ptr %4, align 4, !tbaa !3
  %5 = load ptr, ptr %3, align 8, !tbaa !25
  %6 = getelementptr inbounds nuw %struct.Gia_Man_t_, ptr %5, i32 0, i32 19
  %7 = load ptr, ptr %6, align 8, !tbaa !94
  %8 = load i32, ptr %4, align 4, !tbaa !3
  %9 = sext i32 %8 to i64
  %10 = getelementptr inbounds i32, ptr %7, i64 %9
  %11 = load i32, ptr %10, align 4, !tbaa !3
  ret i32 %11
}

; Function Attrs: inlinehint nounwind uwtable
define internal i32 @Gia_ObjId(ptr noundef %0, ptr noundef %1) #3 {
  %3 = alloca ptr, align 8
  %4 = alloca ptr, align 8
  store ptr %0, ptr %3, align 8, !tbaa !25
  store ptr %1, ptr %4, align 8, !tbaa !45
  %5 = load ptr, ptr %4, align 8, !tbaa !45
  %6 = load ptr, ptr %3, align 8, !tbaa !25
  %7 = getelementptr inbounds nuw %struct.Gia_Man_t_, ptr %6, i32 0, i32 6
  %8 = load ptr, ptr %7, align 8, !tbaa !47
  %9 = ptrtoint ptr %5 to i64
  %10 = ptrtoint ptr %8 to i64
  %11 = sub i64 %9, %10
  %12 = sdiv exact i64 %11, 12
  %13 = trunc i64 %12 to i32
  ret i32 %13
}

; Function Attrs: inlinehint nounwind uwtable
define internal void @Vec_IntShrink(ptr noundef %0, i32 noundef %1) #3 {
  %3 = alloca ptr, align 8
  %4 = alloca i32, align 4
  store ptr %0, ptr %3, align 8, !tbaa !27
  store i32 %1, ptr %4, align 4, !tbaa !3
  %5 = load i32, ptr %4, align 4, !tbaa !3
  %6 = load ptr, ptr %3, align 8, !tbaa !27
  %7 = getelementptr inbounds nuw %struct.Vec_Int_t_, ptr %6, i32 0, i32 1
  store i32 %5, ptr %7, align 4, !tbaa !38
  ret void
}

; Function Attrs: inlinehint nounwind uwtable
define internal ptr @Vec_IntArray(ptr noundef %0) #3 {
  %2 = alloca ptr, align 8
  store ptr %0, ptr %2, align 8, !tbaa !27
  %3 = load ptr, ptr %2, align 8, !tbaa !27
  %4 = getelementptr inbounds nuw %struct.Vec_Int_t_, ptr %3, i32 0, i32 2
  %5 = load ptr, ptr %4, align 8, !tbaa !35
  ret ptr %5
}

; Function Attrs: inlinehint nounwind uwtable
define internal i32 @Gia_ObjRefNum(ptr noundef %0, ptr noundef %1) #3 {
  %3 = alloca ptr, align 8
  %4 = alloca ptr, align 8
  store ptr %0, ptr %3, align 8, !tbaa !25
  store ptr %1, ptr %4, align 8, !tbaa !45
  %5 = load ptr, ptr %3, align 8, !tbaa !25
  %6 = load ptr, ptr %3, align 8, !tbaa !25
  %7 = load ptr, ptr %4, align 8, !tbaa !45
  %8 = call i32 @Gia_ObjId(ptr noundef %6, ptr noundef %7)
  %9 = call i32 @Gia_ObjRefNumId(ptr noundef %5, i32 noundef %8)
  ret i32 %9
}

; Function Attrs: inlinehint nounwind uwtable
define internal ptr @Gia_ObjFanin1(ptr noundef %0) #3 {
  %2 = alloca ptr, align 8
  store ptr %0, ptr %2, align 8, !tbaa !45
  %3 = load ptr, ptr %2, align 8, !tbaa !45
  %4 = load ptr, ptr %2, align 8, !tbaa !45
  %5 = load i64, ptr %4, align 4
  %6 = lshr i64 %5, 32
  %7 = and i64 %6, 536870911
  %8 = trunc i64 %7 to i32
  %9 = sext i32 %8 to i64
  %10 = sub i64 0, %9
  %11 = getelementptr inbounds %struct.Gia_Obj_t_, ptr %3, i64 %10
  ret ptr %11
}

; Function Attrs: inlinehint nounwind uwtable
define internal ptr @Gia_ObjFanin0(ptr noundef %0) #3 {
  %2 = alloca ptr, align 8
  store ptr %0, ptr %2, align 8, !tbaa !45
  %3 = load ptr, ptr %2, align 8, !tbaa !45
  %4 = load ptr, ptr %2, align 8, !tbaa !45
  %5 = load i64, ptr %4, align 4
  %6 = and i64 %5, 536870911
  %7 = trunc i64 %6 to i32
  %8 = sext i32 %7 to i64
  %9 = sub i64 0, %8
  %10 = getelementptr inbounds %struct.Gia_Obj_t_, ptr %3, i64 %9
  ret ptr %10
}

; Function Attrs: inlinehint nounwind uwtable
define internal ptr @Gia_ManObj(ptr noundef %0, i32 noundef %1) #3 {
  %3 = alloca ptr, align 8
  %4 = alloca i32, align 4
  store ptr %0, ptr %3, align 8, !tbaa !25
  store i32 %1, ptr %4, align 4, !tbaa !3
  %5 = load ptr, ptr %3, align 8, !tbaa !25
  %6 = getelementptr inbounds nuw %struct.Gia_Man_t_, ptr %5, i32 0, i32 6
  %7 = load ptr, ptr %6, align 8, !tbaa !47
  %8 = load i32, ptr %4, align 4, !tbaa !3
  %9 = sext i32 %8 to i64
  %10 = getelementptr inbounds %struct.Gia_Obj_t_, ptr %7, i64 %9
  ret ptr %10
}

; Function Attrs: inlinehint nounwind uwtable
define internal i32 @Vec_IntEntry(ptr noundef %0, i32 noundef %1) #3 {
  %3 = alloca ptr, align 8
  %4 = alloca i32, align 4
  store ptr %0, ptr %3, align 8, !tbaa !27
  store i32 %1, ptr %4, align 4, !tbaa !3
  %5 = load ptr, ptr %3, align 8, !tbaa !27
  %6 = getelementptr inbounds nuw %struct.Vec_Int_t_, ptr %5, i32 0, i32 2
  %7 = load ptr, ptr %6, align 8, !tbaa !35
  %8 = load i32, ptr %4, align 4, !tbaa !3
  %9 = sext i32 %8 to i64
  %10 = getelementptr inbounds i32, ptr %7, i64 %9
  %11 = load i32, ptr %10, align 4, !tbaa !3
  ret i32 %11
}

; Function Attrs: inlinehint nounwind uwtable
define internal i32 @Vec_IntSize(ptr noundef %0) #3 {
  %2 = alloca ptr, align 8
  store ptr %0, ptr %2, align 8, !tbaa !27
  %3 = load ptr, ptr %2, align 8, !tbaa !27
  %4 = getelementptr inbounds nuw %struct.Vec_Int_t_, ptr %3, i32 0, i32 1
  %5 = load i32, ptr %4, align 4, !tbaa !38
  ret i32 %5
}

; Function Attrs: nounwind uwtable
define void @Ree_ManRemoveTrivial(ptr noundef %0, ptr noundef %1) #0 {
  %3 = alloca ptr, align 8
  %4 = alloca ptr, align 8
  %5 = alloca ptr, align 8
  %6 = alloca ptr, align 8
  %7 = alloca i32, align 4
  %8 = alloca i32, align 4
  store ptr %0, ptr %3, align 8, !tbaa !25
  store ptr %1, ptr %4, align 8, !tbaa !27
  call void @llvm.lifetime.start.p0(i64 8, ptr %5) #12
  call void @llvm.lifetime.start.p0(i64 8, ptr %6) #12
  call void @llvm.lifetime.start.p0(i64 4, ptr %7) #12
  call void @llvm.lifetime.start.p0(i64 4, ptr %8) #12
  store i32 0, ptr %8, align 4, !tbaa !3
  %9 = load ptr, ptr %3, align 8, !tbaa !25
  %10 = getelementptr inbounds nuw %struct.Gia_Man_t_, ptr %9, i32 0, i32 19
  %11 = load ptr, ptr %10, align 8, !tbaa !94
  %12 = icmp ne ptr %11, null
  br i1 %12, label %13, label %19

13:                                               ; preds = %2
  %14 = load ptr, ptr %3, align 8, !tbaa !25
  %15 = getelementptr inbounds nuw %struct.Gia_Man_t_, ptr %14, i32 0, i32 19
  %16 = load ptr, ptr %15, align 8, !tbaa !94
  call void @free(ptr noundef %16) #12
  %17 = load ptr, ptr %3, align 8, !tbaa !25
  %18 = getelementptr inbounds nuw %struct.Gia_Man_t_, ptr %17, i32 0, i32 19
  store ptr null, ptr %18, align 8, !tbaa !94
  br label %20

19:                                               ; preds = %2
  br label %20

20:                                               ; preds = %19, %13
  %21 = load ptr, ptr %3, align 8, !tbaa !25
  call void @Gia_ManCreateRefs(ptr noundef %21)
  store i32 0, ptr %7, align 4, !tbaa !3
  br label %22

22:                                               ; preds = %80, %20
  %23 = load i32, ptr %7, align 4, !tbaa !3
  %24 = mul nsw i32 6, %23
  %25 = load ptr, ptr %4, align 8, !tbaa !27
  %26 = call i32 @Vec_IntSize(ptr noundef %25)
  %27 = icmp slt i32 %24, %26
  br i1 %27, label %28, label %83

28:                                               ; preds = %22
  %29 = load ptr, ptr %4, align 8, !tbaa !27
  %30 = load i32, ptr %7, align 4, !tbaa !3
  %31 = mul nsw i32 6, %30
  %32 = add nsw i32 %31, 2
  %33 = call i32 @Vec_IntEntry(ptr noundef %29, i32 noundef %32)
  %34 = icmp eq i32 %33, 0
  br i1 %34, label %35, label %66

35:                                               ; preds = %28
  %36 = load ptr, ptr %3, align 8, !tbaa !25
  %37 = load ptr, ptr %4, align 8, !tbaa !27
  %38 = load i32, ptr %7, align 4, !tbaa !3
  %39 = mul nsw i32 6, %38
  %40 = add nsw i32 %39, 3
  %41 = call i32 @Vec_IntEntry(ptr noundef %37, i32 noundef %40)
  %42 = call ptr @Gia_ManObj(ptr noundef %36, i32 noundef %41)
  store ptr %42, ptr %5, align 8, !tbaa !45
  %43 = load ptr, ptr %3, align 8, !tbaa !25
  %44 = load ptr, ptr %4, align 8, !tbaa !27
  %45 = load i32, ptr %7, align 4, !tbaa !3
  %46 = mul nsw i32 6, %45
  %47 = add nsw i32 %46, 4
  %48 = call i32 @Vec_IntEntry(ptr noundef %44, i32 noundef %47)
  %49 = call ptr @Gia_ManObj(ptr noundef %43, i32 noundef %48)
  store ptr %49, ptr %6, align 8, !tbaa !45
  %50 = load ptr, ptr %6, align 8, !tbaa !45
  %51 = load ptr, ptr %5, align 8, !tbaa !45
  %52 = call ptr @Gia_ObjFanin0(ptr noundef %51)
  %53 = icmp eq ptr %50, %52
  br i1 %53, label %59, label %54

54:                                               ; preds = %35
  %55 = load ptr, ptr %6, align 8, !tbaa !45
  %56 = load ptr, ptr %5, align 8, !tbaa !45
  %57 = call ptr @Gia_ObjFanin1(ptr noundef %56)
  %58 = icmp eq ptr %55, %57
  br i1 %58, label %59, label %65

59:                                               ; preds = %54, %35
  %60 = load ptr, ptr %3, align 8, !tbaa !25
  %61 = load ptr, ptr %6, align 8, !tbaa !45
  %62 = call i32 @Gia_ObjRefNum(ptr noundef %60, ptr noundef %61)
  %63 = icmp eq i32 %62, 1
  br i1 %63, label %64, label %65

64:                                               ; preds = %59
  br label %80

65:                                               ; preds = %59, %54
  br label %66

66:                                               ; preds = %65, %28
  %67 = load ptr, ptr %4, align 8, !tbaa !27
  %68 = call ptr @Vec_IntArray(ptr noundef %67)
  %69 = load i32, ptr %8, align 4, !tbaa !3
  %70 = add nsw i32 %69, 1
  store i32 %70, ptr %8, align 4, !tbaa !3
  %71 = mul nsw i32 6, %69
  %72 = sext i32 %71 to i64
  %73 = getelementptr inbounds i32, ptr %68, i64 %72
  %74 = load ptr, ptr %4, align 8, !tbaa !27
  %75 = call ptr @Vec_IntArray(ptr noundef %74)
  %76 = load i32, ptr %7, align 4, !tbaa !3
  %77 = mul nsw i32 6, %76
  %78 = sext i32 %77 to i64
  %79 = getelementptr inbounds i32, ptr %75, i64 %78
  call void @llvm.memmove.p0.p0.i64(ptr align 4 %73, ptr align 4 %79, i64 24, i1 false)
  br label %80

80:                                               ; preds = %66, %64
  %81 = load i32, ptr %7, align 4, !tbaa !3
  %82 = add nsw i32 %81, 1
  store i32 %82, ptr %7, align 4, !tbaa !3
  br label %22, !llvm.loop !95

83:                                               ; preds = %22
  %84 = load ptr, ptr %4, align 8, !tbaa !27
  %85 = load i32, ptr %8, align 4, !tbaa !3
  %86 = mul nsw i32 6, %85
  call void @Vec_IntShrink(ptr noundef %84, i32 noundef %86)
  call void @llvm.lifetime.end.p0(i64 4, ptr %8) #12
  call void @llvm.lifetime.end.p0(i64 4, ptr %7) #12
  call void @llvm.lifetime.end.p0(i64 8, ptr %6) #12
  call void @llvm.lifetime.end.p0(i64 8, ptr %5) #12
  ret void
}